target datalayout = "e-m:e-p270:32:32-p271:32:32-p272:64:64-i64:64-i128:128-f80:128-n8:16:32:64-S128"
target triple = "x86_64-pc-linux-gnu"

%struct.lv_area_t = type { i32, i32, i32, i32 }
%struct.lv_color_t = type { i8, i8, i8 }
%struct._lv_draw_image_dsc_t = type { %struct.lv_draw_dsc_base_t, ptr, %struct.lv_image_header_t, i32, i32, i32, i32, i32, %struct.lv_point_t, %struct.lv_color_t, i8, i8, i8, ptr, %struct.lv_area_t, i32, ptr }
%struct.lv_draw_dsc_base_t = type { ptr, i32, i32, i32, ptr, i64, ptr }
%struct.lv_image_header_t = type <{ i64, i32 }>
%struct.lv_point_t = type { i32, i32 }
%struct._lv_image_decoder_dsc_t = type { ptr, %struct._lv_image_decoder_args_t, ptr, i32, %struct.lv_fs_file_t, %struct.lv_image_header_t, ptr, ptr, i32, i32, ptr, ptr, ptr, ptr }
%struct._lv_image_decoder_args_t = type { i8, i8, i8, i8, i8 }
%struct.lv_fs_file_t = type { ptr, ptr, ptr }
%struct._lv_draw_image_sup_t = type { %struct.lv_color_t, ptr, i16 }

@__const.lv_draw_image_tiled_helper.relative_decoded_area = private unnamed_addr constant %struct.lv_area_t { i32 -536870911, i32 -536870911, i32 -536870911, i32 -536870911 }, align 4

; Function Attrs: nounwind uwtable
define internal void @img_decode_and_draw(ptr noundef %0, ptr noundef %1, ptr noundef %2, ptr noundef %3, ptr noundef %4, ptr noundef %5, ptr noundef %6) #0 {
  %8 = alloca ptr, align 8
  %9 = alloca ptr, align 8
  %10 = alloca ptr, align 8
  %11 = alloca ptr, align 8
  %12 = alloca ptr, align 8
  %13 = alloca ptr, align 8
  %14 = alloca ptr, align 8
  %15 = alloca %struct._lv_draw_image_sup_t, align 8
  %16 = alloca %struct.lv_area_t, align 4
  %17 = alloca %struct.lv_area_t, align 4
  %18 = alloca i32, align 4
  %19 = alloca %struct.lv_area_t, align 4
  %20 = alloca %struct.lv_area_t, align 4
  store ptr %0, ptr %8, align 8, !tbaa !3
  store ptr %1, ptr %9, align 8, !tbaa !3
  store ptr %2, ptr %10, align 8, !tbaa !3
  store ptr %3, ptr %11, align 8, !tbaa !3
  store ptr %4, ptr %12, align 8, !tbaa !3
  store ptr %5, ptr %13, align 8, !tbaa !3
  store ptr %6, ptr %14, align 8, !tbaa !3
  call void @llvm.lifetime.start.p0(i64 24, ptr %15) #5
  %21 = getelementptr inbounds nuw %struct._lv_draw_image_sup_t, ptr %15, i32 0, i32 0
  %22 = load ptr, ptr %9, align 8, !tbaa !3
  %23 = getelementptr inbounds nuw %struct._lv_draw_image_dsc_t, ptr %22, i32 0, i32 9
  call void @llvm.memcpy.p0.p0.i64(ptr align 8 %21, ptr align 8 %23, i64 3, i1 false), !tbaa.struct !7
  %24 = load ptr, ptr %10, align 8, !tbaa !3
  %25 = getelementptr inbounds nuw %struct._lv_image_decoder_dsc_t, ptr %24, i32 0, i32 7
  %26 = load ptr, ptr %25, align 8, !tbaa !43
  %27 = getelementptr inbounds nuw %struct._lv_draw_image_sup_t, ptr %15, i32 0, i32 1
  store ptr %26, ptr %27, align 8, !tbaa !47
  %28 = load ptr, ptr %10, align 8, !tbaa !3
  %29 = getelementptr inbounds nuw %struct._lv_image_decoder_dsc_t, ptr %28, i32 0, i32 8
  %30 = load i32, ptr %29, align 8, !tbaa !49
  %31 = getelementptr inbounds nuw %struct._lv_draw_image_sup_t, ptr %15, i32 0, i32 2
  %32 = trunc i32 %30 to i16
  %33 = load i16, ptr %31, align 8
  %34 = and i16 %32, 511
  %35 = and i16 %33, -512
  %36 = or i16 %35, %34
  store i16 %36, ptr %31, align 8
  %37 = load ptr, ptr %10, align 8, !tbaa !3
  %38 = getelementptr inbounds nuw %struct._lv_image_decoder_dsc_t, ptr %37, i32 0, i32 6
  %39 = load ptr, ptr %38, align 8, !tbaa !50
  %40 = icmp ne ptr %39, null
  br i1 %40, label %41, label %56

41:                                               ; preds = %7
  %42 = load ptr, ptr %11, align 8, !tbaa !3
  %43 = icmp eq ptr %42, null
  br i1 %43, label %49, label %44

44:                                               ; preds = %41
  %45 = load ptr, ptr %11, align 8, !tbaa !3
  %46 = getelementptr inbounds nuw %struct.lv_area_t, ptr %45, i32 0, i32 0
  %47 = load i32, ptr %46, align 4, !tbaa !29
  %48 = icmp eq i32 %47, -536870911
  br i1 %48, label %49, label %56

49:                                               ; preds = %44, %41
  %50 = load ptr, ptr %14, align 8, !tbaa !3
  %51 = load ptr, ptr %8, align 8, !tbaa !3
  %52 = load ptr, ptr %9, align 8, !tbaa !3
  %53 = load ptr, ptr %10, align 8, !tbaa !3
  %54 = load ptr, ptr %12, align 8, !tbaa !3
  %55 = load ptr, ptr %13, align 8, !tbaa !3
  call void %50(ptr noundef %51, ptr noundef %52, ptr noundef %53, ptr noundef %15, ptr noundef %54, ptr noundef %55)
  br label %105

56:                                               ; preds = %44, %7
  call void @llvm.lifetime.start.p0(i64 16, ptr %16) #5
  %57 = load ptr, ptr %13, align 8, !tbaa !3
  call void @llvm.memcpy.p0.p0.i64(ptr align 4 %16, ptr align 4 %57, i64 16, i1 false), !tbaa.struct !51
  %58 = load ptr, ptr %12, align 8, !tbaa !3
  %59 = getelementptr inbounds nuw %struct.lv_area_t, ptr %58, i32 0, i32 0
  %60 = load i32, ptr %59, align 4, !tbaa !29
  %61 = sub nsw i32 0, %60
  %62 = load ptr, ptr %12, align 8, !tbaa !3
  %63 = getelementptr inbounds nuw %struct.lv_area_t, ptr %62, i32 0, i32 1
  %64 = load i32, ptr %63, align 4, !tbaa !30
  %65 = sub nsw i32 0, %64
  call void @lv_area_move(ptr noundef %16, i32 noundef %61, i32 noundef %65)
  call void @llvm.lifetime.start.p0(i64 16, ptr %17) #5
  %66 = load ptr, ptr %11, align 8, !tbaa !3
  %67 = icmp eq ptr %66, null
  br i1 %67, label %68, label %69

68:                                               ; preds = %56
  store ptr %17, ptr %11, align 8, !tbaa !3
  br label %69

69:                                               ; preds = %68, %56
  %70 = load ptr, ptr %11, align 8, !tbaa !3
  %71 = getelementptr inbounds nuw %struct.lv_area_t, ptr %70, i32 0, i32 0
  store i32 -536870911, ptr %71, align 4, !tbaa !29
  %72 = load ptr, ptr %11, align 8, !tbaa !3
  %73 = getelementptr inbounds nuw %struct.lv_area_t, ptr %72, i32 0, i32 1
  store i32 -536870911, ptr %73, align 4, !tbaa !30
  %74 = load ptr, ptr %11, align 8, !tbaa !3
  %75 = getelementptr inbounds nuw %struct.lv_area_t, ptr %74, i32 0, i32 2
  store i32 -536870911, ptr %75, align 4, !tbaa !37
  %76 = load ptr, ptr %11, align 8, !tbaa !3
  %77 = getelementptr inbounds nuw %struct.lv_area_t, ptr %76, i32 0, i32 3
  store i32 -536870911, ptr %77, align 4, !tbaa !38
  call void @llvm.lifetime.start.p0(i64 4, ptr %18) #5
  store i32 1, ptr %18, align 4, !tbaa !35
  br label %78

78:                                               ; preds = %103, %69
  %79 = load i32, ptr %18, align 4, !tbaa !35
  %80 = icmp eq i32 %79, 1
  br i1 %80, label %81, label %104

81:                                               ; preds = %78
  %82 = load ptr, ptr %10, align 8, !tbaa !3
  %83 = load ptr, ptr %11, align 8, !tbaa !3
  %84 = call i32 @lv_image_decoder_get_area(ptr noundef %82, ptr noundef %16, ptr noundef %83)
  store i32 %84, ptr %18, align 4, !tbaa !35
  call void @llvm.lifetime.start.p0(i64 16, ptr %19) #5
  %85 = load ptr, ptr %11, align 8, !tbaa !3
  call void @llvm.memcpy.p0.p0.i64(ptr align 4 %19, ptr align 4 %85, i64 16, i1 false), !tbaa.struct !51
  %86 = load ptr, ptr %12, align 8, !tbaa !3
  %87 = getelementptr inbounds nuw %struct.lv_area_t, ptr %86, i32 0, i32 0
  %88 = load i32, ptr %87, align 4, !tbaa !29
  %89 = load ptr, ptr %12, align 8, !tbaa !3
  %90 = getelementptr inbounds nuw %struct.lv_area_t, ptr %89, i32 0, i32 1
  %91 = load i32, ptr %90, align 4, !tbaa !30
  call void @lv_area_move(ptr noundef %19, i32 noundef %88, i32 noundef %91)
  %92 = load i32, ptr %18, align 4, !tbaa !35
  %93 = icmp eq i32 %92, 1
  br i1 %93, label %94, label %103

94:                                               ; preds = %81
  call void @llvm.lifetime.start.p0(i64 16, ptr %20) #5
  %95 = load ptr, ptr %13, align 8, !tbaa !3
  %96 = call zeroext i1 @lv_area_intersect(ptr noundef %20, ptr noundef %95, ptr noundef %19)
  br i1 %96, label %97, label %102

97:                                               ; preds = %94
  %98 = load ptr, ptr %14, align 8, !tbaa !3
  %99 = load ptr, ptr %8, align 8, !tbaa !3
  %100 = load ptr, ptr %9, align 8, !tbaa !3
  %101 = load ptr, ptr %10, align 8, !tbaa !3
  call void %98(ptr noundef %99, ptr noundef %100, ptr noundef %101, ptr noundef %15, ptr noundef %19, ptr noundef %20)
  br label %102

102:                                              ; preds = %97, %94
  call void @llvm.lifetime.end.p0(i64 16, ptr %20) #5
  br label %103

103:                                              ; preds = %102, %81
  call void @llvm.lifetime.end.p0(i64 16, ptr %19) #5
  br label %78, !llvm.loop !52

104:                                              ; preds = %78
  call void @llvm.lifetime.end.p0(i64 4, ptr %18) #5
  call void @llvm.lifetime.end.p0(i64 16, ptr %17) #5
  call void @llvm.lifetime.end.p0(i64 16, ptr %16) #5
  br label %105

105:                                              ; preds = %104, %49
  call void @llvm.lifetime.end.p0(i64 24, ptr %15) #5
  ret void
}

; Function Attrs: nounwind uwtable
define void @lv_draw_image_tiled_helper(ptr noundef %0, ptr noundef %1, ptr noundef %2, ptr noundef %3) #0 {
  %5 = alloca ptr, align 8
  %6 = alloca ptr, align 8
  %7 = alloca ptr, align 8
  %8 = alloca ptr, align 8
  %9 = alloca %struct._lv_image_decoder_dsc_t, align 8
  %10 = alloca i32, align 4
  %11 = alloca i32, align 4
  %12 = alloca i32, align 4
  %13 = alloca i32, align 4
  %14 = alloca %struct.lv_area_t, align 4
  %15 = alloca i32, align 4
  %16 = alloca %struct.lv_area_t, align 4
  %17 = alloca %struct.lv_area_t, align 4
  store ptr %0, ptr %5, align 8, !tbaa !3
  store ptr %1, ptr %6, align 8, !tbaa !3
  store ptr %2, ptr %7, align 8, !tbaa !3
  store ptr %3, ptr %8, align 8, !tbaa !3
  %18 = load ptr, ptr %8, align 8, !tbaa !3
  %19 = icmp eq ptr %18, null
  br i1 %19, label %20, label %23

20:                                               ; preds = %4
  br label %21

21:                                               ; preds = %20
  br label %22

22:                                               ; preds = %21
  br label %110

23:                                               ; preds = %4
  call void @llvm.lifetime.start.p0(i64 128, ptr %9) #5
  call void @llvm.lifetime.start.p0(i64 4, ptr %10) #5
  %24 = load ptr, ptr %6, align 8, !tbaa !3
  %25 = getelementptr inbounds nuw %struct._lv_draw_image_dsc_t, ptr %24, i32 0, i32 1
  %26 = load ptr, ptr %25, align 8, !tbaa !31
  %27 = call i32 @lv_image_decoder_open(ptr noundef %9, ptr noundef %26, ptr noundef null)
  store i32 %27, ptr %10, align 4, !tbaa !35
  %28 = load i32, ptr %10, align 4, !tbaa !35
  %29 = icmp ne i32 %28, 1
  br i1 %29, label %30, label %34

30:                                               ; preds = %23
  br label %31

31:                                               ; preds = %30
  br label %32

32:                                               ; preds = %31
  br label %33

33:                                               ; preds = %32
  store i32 1, ptr %11, align 4
  br label %108

34:                                               ; preds = %23
  call void @llvm.lifetime.start.p0(i64 4, ptr %12) #5
  %35 = load ptr, ptr %6, align 8, !tbaa !3
  %36 = getelementptr inbounds nuw %struct._lv_draw_image_dsc_t, ptr %35, i32 0, i32 2
  %37 = load i64, ptr %36, align 8
  %38 = lshr i64 %37, 32
  %39 = and i64 %38, 65535
  %40 = trunc i64 %39 to i32
  store i32 %40, ptr %12, align 4, !tbaa !35
  call void @llvm.lifetime.start.p0(i64 4, ptr %13) #5
  %41 = load ptr, ptr %6, align 8, !tbaa !3
  %42 = getelementptr inbounds nuw %struct._lv_draw_image_dsc_t, ptr %41, i32 0, i32 2
  %43 = load i64, ptr %42, align 8
  %44 = lshr i64 %43, 48
  %45 = trunc i64 %44 to i32
  store i32 %45, ptr %13, align 4, !tbaa !35
  call void @llvm.lifetime.start.p0(i64 16, ptr %14) #5
  %46 = load ptr, ptr %6, align 8, !tbaa !3
  %47 = getelementptr inbounds nuw %struct._lv_draw_image_dsc_t, ptr %46, i32 0, i32 14
  %48 = call i32 @lv_area_get_width(ptr noundef %47)
  %49 = icmp sge i32 %48, 0
  br i1 %49, label %50, label %53

50:                                               ; preds = %34
  %51 = load ptr, ptr %6, align 8, !tbaa !3
  %52 = getelementptr inbounds nuw %struct._lv_draw_image_dsc_t, ptr %51, i32 0, i32 14
  call void @llvm.memcpy.p0.p0.i64(ptr align 4 %14, ptr align 8 %52, i64 16, i1 false), !tbaa.struct !51
  br label %55

53:                                               ; preds = %34
  %54 = load ptr, ptr %7, align 8, !tbaa !3
  call void @llvm.memcpy.p0.p0.i64(ptr align 4 %14, ptr align 4 %54, i64 16, i1 false), !tbaa.struct !51
  br label %55

55:                                               ; preds = %53, %50
  %56 = load i32, ptr %12, align 4, !tbaa !35
  call void @lv_area_set_width(ptr noundef %14, i32 noundef %56)
  %57 = load i32, ptr %13, align 4, !tbaa !35
  call void @lv_area_set_height(ptr noundef %14, i32 noundef %57)
  call void @llvm.lifetime.start.p0(i64 4, ptr %15) #5
  %58 = getelementptr inbounds nuw %struct.lv_area_t, ptr %14, i32 0, i32 0
  %59 = load i32, ptr %58, align 4, !tbaa !29
  store i32 %59, ptr %15, align 4, !tbaa !35
  call void @llvm.lifetime.start.p0(i64 16, ptr %16) #5
  call void @llvm.memcpy.p0.p0.i64(ptr align 4 %16, ptr align 4 @__const.lv_draw_image_tiled_helper.relative_decoded_area, i64 16, i1 false)
  br label %60

60:                                               ; preds = %91, %55
  %61 = getelementptr inbounds nuw %struct.lv_area_t, ptr %14, i32 0, i32 1
  %62 = load i32, ptr %61, align 4, !tbaa !30
  %63 = load ptr, ptr %7, align 8, !tbaa !3
  %64 = getelementptr inbounds nuw %struct.lv_area_t, ptr %63, i32 0, i32 3
  %65 = load i32, ptr %64, align 4, !tbaa !38
  %66 = icmp sle i32 %62, %65
  br i1 %66, label %67, label %107

67:                                               ; preds = %60
  br label %68

68:                                               ; preds = %82, %67
  %69 = getelementptr inbounds nuw %struct.lv_area_t, ptr %14, i32 0, i32 0
  %70 = load i32, ptr %69, align 4, !tbaa !29
  %71 = load ptr, ptr %7, align 8, !tbaa !3
  %72 = getelementptr inbounds nuw %struct.lv_area_t, ptr %71, i32 0, i32 2
  %73 = load i32, ptr %72, align 4, !tbaa !37
  %74 = icmp sle i32 %70, %73
  br i1 %74, label %75, label %91

75:                                               ; preds = %68
  call void @llvm.lifetime.start.p0(i64 16, ptr %17) #5
  %76 = load ptr, ptr %7, align 8, !tbaa !3
  %77 = call zeroext i1 @lv_area_intersect(ptr noundef %17, ptr noundef %14, ptr noundef %76)
  br i1 %77, label %78, label %82

78:                                               ; preds = %75
  %79 = load ptr, ptr %5, align 8, !tbaa !3
  %80 = load ptr, ptr %6, align 8, !tbaa !3
  %81 = load ptr, ptr %8, align 8, !tbaa !3
  call void @img_decode_and_draw(ptr noundef %79, ptr noundef %80, ptr noundef %9, ptr noundef %16, ptr noundef %14, ptr noundef %17, ptr noundef %81)
  br label %82

82:                                               ; preds = %78, %75
  %83 = load i32, ptr %12, align 4, !tbaa !35
  %84 = getelementptr inbounds nuw %struct.lv_area_t, ptr %14, i32 0, i32 0
  %85 = load i32, ptr %84, align 4, !tbaa !29
  %86 = add nsw i32 %85, %83
  store i32 %86, ptr %84, align 4, !tbaa !29
  %87 = load i32, ptr %12, align 4, !tbaa !35
  %88 = getelementptr inbounds nuw %struct.lv_area_t, ptr %14, i32 0, i32 2
  %89 = load i32, ptr %88, align 4, !tbaa !37
  %90 = add nsw i32 %89, %87
  store i32 %90, ptr %88, align 4, !tbaa !37
  call void @llvm.lifetime.end.p0(i64 16, ptr %17) #5
  br label %68, !llvm.loop !54

91:                                               ; preds = %68
  %92 = load i32, ptr %13, align 4, !tbaa !35
  %93 = getelementptr inbounds nuw %struct.lv_area_t, ptr %14, i32 0, i32 1
  %94 = load i32, ptr %93, align 4, !tbaa !30
  %95 = add nsw i32 %94, %92
  store i32 %95, ptr %93, align 4, !tbaa !30
  %96 = load i32, ptr %13, align 4, !tbaa !35
  %97 = getelementptr inbounds nuw %struct.lv_area_t, ptr %14, i32 0, i32 3
  %98 = load i32, ptr %97, align 4, !tbaa !38
  %99 = add nsw i32 %98, %96
  store i32 %99, ptr %97, align 4, !tbaa !38
  %100 = load i32, ptr %15, align 4, !tbaa !35
  %101 = getelementptr inbounds nuw %struct.lv_area_t, ptr %14, i32 0, i32 0
  store i32 %100, ptr %101, align 4, !tbaa !29
  %102 = load i32, ptr %15, align 4, !tbaa !35
  %103 = load i32, ptr %12, align 4, !tbaa !35
  %104 = add nsw i32 %102, %103
  %105 = sub nsw i32 %104, 1
  %106 = getelementptr inbounds nuw %struct.lv_area_t, ptr %14, i32 0, i32 2
  store i32 %105, ptr %106, align 4, !tbaa !37
  br label %60, !llvm.loop !55

107:                                              ; preds = %60
  call void @lv_image_decoder_close(ptr noundef %9)
  call void @llvm.lifetime.end.p0(i64 16, ptr %16) #5
  call void @llvm.lifetime.end.p0(i64 4, ptr %15) #5
  call void @llvm.lifetime.end.p0(i64 16, ptr %14) #5
  call void @llvm.lifetime.end.p0(i64 4, ptr %13) #5
  call void @llvm.lifetime.end.p0(i64 4, ptr %12) #5
  store i32 0, ptr %11, align 4
  br label %108

108:                                              ; preds = %107, %33
  call void @llvm.lifetime.end.p0(i64 4, ptr %10) #5
  call void @llvm.lifetime.end.p0(i64 128, ptr %9) #5
  %109 = load i32, ptr %11, align 4
  switch i32 %109, label %111 [
    i32 0, label %110
    i32 1, label %110
  ]

110:                                              ; preds = %22, %108, %108
  ret void

111:                                              ; preds = %108
  unreachable
}