; Function Attrs: nounwind uwtable
define void @lv_draw_image_tiled_helper(ptr noundef %0, ptr noundef %1, ptr noundef %2, ptr noundef readonly %3) local_unnamed_addr #0 {
  %5 = alloca %struct._lv_draw_image_sup_t, align 8
  %6 = alloca %struct.lv_area_t, align 4
  %7 = alloca %struct.lv_area_t, align 4
  %8 = alloca %struct.lv_area_t, align 4
  %9 = alloca %struct._lv_image_decoder_dsc_t, align 8
  %10 = alloca %struct.lv_area_t, align 4
  %11 = alloca %struct.lv_area_t, align 4
  %12 = alloca %struct.lv_area_t, align 4
  %13 = icmp eq ptr %3, null
  br i1 %13, label %87, label %14

14:                                               ; preds = %4
  call void @llvm.lifetime.start.p0(i64 128, ptr nonnull %9) #6
  %15 = getelementptr inbounds nuw i8, ptr %1, i64 48
  %16 = load ptr, ptr %15, align 8, !tbaa !27
  %17 = call i32 @lv_image_decoder_open(ptr noundef nonnull %9, ptr noundef %16, ptr noundef null) #6
  %.not = icmp eq i32 %17, 1
  br i1 %.not, label %18, label %86

18:                                               ; preds = %14
  %19 = getelementptr inbounds nuw i8, ptr %1, i64 56
  %20 = load i64, ptr %19, align 8
  %21 = lshr i64 %20, 32
  %22 = trunc nuw i64 %21 to i32
  %23 = and i32 %22, 65535
  %24 = lshr i64 %20, 48
  %25 = trunc nuw nsw i64 %24 to i32
  call void @llvm.lifetime.start.p0(i64 16, ptr nonnull %10) #6
  %26 = getelementptr inbounds nuw i8, ptr %1, i64 112
  %27 = call i32 @lv_area_get_width(ptr noundef nonnull %26) #6
  %28 = icmp slt i32 %27, 0
  %. = select i1 %28, ptr %2, ptr %26
  call void @llvm.memcpy.p0.p0.i64(ptr noundef nonnull align 4 dereferenceable(16) %10, ptr noundef nonnull align 4 dereferenceable(16) %., i64 16, i1 false)
  call void @lv_area_set_width(ptr noundef nonnull %10, i32 noundef %23) #6
  call void @lv_area_set_height(ptr noundef nonnull %10, i32 noundef %25) #6
  %29 = load i32, ptr %10, align 4, !tbaa !25
  call void @llvm.lifetime.start.p0(i64 16, ptr nonnull %11) #6
  call void @llvm.memcpy.p0.p0.i64(ptr noundef nonnull align 4 dereferenceable(16) %11, ptr noundef nonnull align 4 dereferenceable(16) @__const.lv_draw_image_tiled_helper.relative_decoded_area, i64 16, i1 false)
  %30 = getelementptr inbounds nuw i8, ptr %10, i64 4
  %31 = getelementptr inbounds nuw i8, ptr %2, i64 12
  %32 = load i32, ptr %30, align 4, !tbaa !26
  %33 = load i32, ptr %31, align 4, !tbaa !35
  %.not2228 = icmp sgt i32 %32, %33
  br i1 %.not2228, label %._crit_edge29, label %.preheader.lr.ph

.preheader.lr.ph:                                 ; preds = %18
  %34 = getelementptr inbounds nuw i8, ptr %2, i64 8
  %35 = getelementptr inbounds nuw i8, ptr %1, i64 96
  %36 = getelementptr inbounds nuw i8, ptr %9, i64 80
  %37 = getelementptr inbounds nuw i8, ptr %5, i64 8
  %38 = getelementptr inbounds nuw i8, ptr %9, i64 88
  %39 = getelementptr inbounds nuw i8, ptr %5, i64 16
  %40 = getelementptr inbounds nuw i8, ptr %9, i64 72
  %spec.store.select.sroa.sel.v.sroa.sel.i = getelementptr inbounds nuw i8, ptr %11, i64 4
  %spec.store.select.sroa.sel35.v.sroa.sel.i = getelementptr inbounds nuw i8, ptr %11, i64 8
  %spec.store.select.sroa.sel38.v.sroa.sel.i = getelementptr inbounds nuw i8, ptr %11, i64 12
  %41 = getelementptr inbounds nuw i8, ptr %10, i64 8
  %42 = getelementptr inbounds nuw i8, ptr %10, i64 12
  %43 = add nsw i32 %23, -1
  %44 = add i32 %43, %29
  %.pre = load i32, ptr %34, align 4, !tbaa !34
  br label %.preheader

.preheader:                                       ; preds = %.preheader.lr.ph, %._crit_edge27
  %45 = phi i32 [ %33, %.preheader.lr.ph ], [ %80, %._crit_edge27 ]
  %46 = phi i32 [ %32, %.preheader.lr.ph ], [ %83, %._crit_edge27 ]
  %47 = phi i32 [ %.pre, %.preheader.lr.ph ], [ %82, %._crit_edge27 ]
  %.not2325 = icmp sgt i32 %29, %47
  br i1 %.not2325, label %._crit_edge27, label %.lr.ph26

.lr.ph26:                                         ; preds = %.preheader, %74
  call void @llvm.lifetime.start.p0(i64 16, ptr nonnull %12) #6
  %48 = call zeroext i1 @lv_area_intersect(ptr noundef nonnull %12, ptr noundef nonnull %10, ptr noundef nonnull %2) #6
  br i1 %48, label %49, label %74

49:                                               ; preds = %.lr.ph26
  call void @llvm.lifetime.start.p0(i64 24, ptr nonnull %5) #6
  call void @llvm.memcpy.p0.p0.i64(ptr noundef nonnull align 8 dereferenceable(3) %5, ptr noundef nonnull align 8 dereferenceable(3) %35, i64 3, i1 false), !tbaa.struct !38
  %50 = load ptr, ptr %36, align 8, !tbaa !39
  store ptr %50, ptr %37, align 8, !tbaa !43
  %51 = load i32, ptr %38, align 8, !tbaa !45
  %52 = trunc i32 %51 to i16
  %53 = and i16 %52, 511
  store i16 %53, ptr %39, align 8
  %54 = load ptr, ptr %40, align 8, !tbaa !46
  %.not.i = icmp ne ptr %54, null
  %55 = load i32, ptr %11, align 4
  %56 = icmp eq i32 %55, -536870911
  %or.cond = select i1 %.not.i, i1 %56, i1 false
  br i1 %or.cond, label %57, label %58

57:                                               ; preds = %49
  call void %3(ptr noundef %0, ptr noundef nonnull %1, ptr noundef nonnull %9, ptr noundef nonnull %5, ptr noundef nonnull %10, ptr noundef nonnull %12) #6
  br label %img_decode_and_draw.exit

58:                                               ; preds = %49
  call void @llvm.lifetime.start.p0(i64 16, ptr nonnull %6) #6
  call void @llvm.memcpy.p0.p0.i64(ptr noundef nonnull align 4 dereferenceable(16) %6, ptr noundef nonnull align 4 dereferenceable(16) %12, i64 16, i1 false), !tbaa.struct !47
  %59 = load i32, ptr %10, align 4, !tbaa !25
  %60 = sub nsw i32 0, %59
  %61 = load i32, ptr %30, align 4, !tbaa !26
  %62 = sub nsw i32 0, %61
  call void @lv_area_move(ptr noundef nonnull %6, i32 noundef %60, i32 noundef %62) #6
  store i32 -536870911, ptr %11, align 4, !tbaa !25
  store i32 -536870911, ptr %spec.store.select.sroa.sel.v.sroa.sel.i, align 4, !tbaa !26
  store i32 -536870911, ptr %spec.store.select.sroa.sel35.v.sroa.sel.i, align 4, !tbaa !34
  store i32 -536870911, ptr %spec.store.select.sroa.sel38.v.sroa.sel.i, align 4, !tbaa !35
  %63 = call i32 @lv_image_decoder_get_area(ptr noundef nonnull %9, ptr noundef nonnull %6, ptr noundef nonnull %11) #6
  call void @llvm.lifetime.start.p0(i64 16, ptr nonnull %7) #6
  call void @llvm.memcpy.p0.p0.i64(ptr noundef nonnull align 4 dereferenceable(16) %7, ptr noundef nonnull align 4 dereferenceable(16) %11, i64 16, i1 false), !tbaa.struct !47
  %64 = load i32, ptr %10, align 4, !tbaa !25
  %65 = load i32, ptr %30, align 4, !tbaa !26
  call void @lv_area_move(ptr noundef nonnull %7, i32 noundef %64, i32 noundef %65) #6
  %66 = icmp eq i32 %63, 1
  br i1 %66, label %.lr.ph, label %._crit_edge

.lr.ph:                                           ; preds = %58, %69
  call void @llvm.lifetime.start.p0(i64 16, ptr nonnull %8) #6
  %67 = call zeroext i1 @lv_area_intersect(ptr noundef nonnull %8, ptr noundef nonnull %12, ptr noundef nonnull %7) #6
  br i1 %67, label %68, label %69

68:                                               ; preds = %.lr.ph
  call void %3(ptr noundef %0, ptr noundef %1, ptr noundef nonnull %9, ptr noundef nonnull %5, ptr noundef nonnull %7, ptr noundef nonnull %8) #6
  br label %69

69:                                               ; preds = %68, %.lr.ph
  call void @llvm.lifetime.end.p0(i64 16, ptr nonnull %8) #6
  call void @llvm.lifetime.end.p0(i64 16, ptr nonnull %7) #6
  %70 = call i32 @lv_image_decoder_get_area(ptr noundef nonnull %9, ptr noundef nonnull %6, ptr noundef nonnull %11) #6
  call void @llvm.lifetime.start.p0(i64 16, ptr nonnull %7) #6
  call void @llvm.memcpy.p0.p0.i64(ptr noundef nonnull align 4 dereferenceable(16) %7, ptr noundef nonnull align 4 dereferenceable(16) %11, i64 16, i1 false), !tbaa.struct !47
  %71 = load i32, ptr %10, align 4, !tbaa !25
  %72 = load i32, ptr %30, align 4, !tbaa !26
  call void @lv_area_move(ptr noundef nonnull %7, i32 noundef %71, i32 noundef %72) #6
  %73 = icmp eq i32 %70, 1
  br i1 %73, label %.lr.ph, label %._crit_edge, !llvm.loop !49

._crit_edge:                                      ; preds = %69, %58
  call void @llvm.lifetime.end.p0(i64 16, ptr nonnull %7) #6
  call void @llvm.lifetime.end.p0(i64 16, ptr nonnull %6) #6
  br label %img_decode_and_draw.exit

img_decode_and_draw.exit:                         ; preds = %57, %._crit_edge
  call void @llvm.lifetime.end.p0(i64 24, ptr nonnull %5) #6
  br label %74

74:                                               ; preds = %img_decode_and_draw.exit, %.lr.ph26
  %75 = load i32, ptr %10, align 4, !tbaa !25
  %76 = add nsw i32 %75, %23
  store i32 %76, ptr %10, align 4, !tbaa !25
  %77 = load i32, ptr %41, align 4, !tbaa !34
  %78 = add nsw i32 %77, %23
  store i32 %78, ptr %41, align 4, !tbaa !34
  call void @llvm.lifetime.end.p0(i64 16, ptr nonnull %12) #6
  %79 = load i32, ptr %34, align 4, !tbaa !34
  %.not23 = icmp sgt i32 %76, %79
  br i1 %.not23, label %._crit_edge27.loopexit, label %.lr.ph26, !llvm.loop !51

._crit_edge27.loopexit:                           ; preds = %74
  %.pre30 = load i32, ptr %30, align 4, !tbaa !26
  %.pre31 = load i32, ptr %31, align 4, !tbaa !35
  br label %._crit_edge27

._crit_edge27:                                    ; preds = %._crit_edge27.loopexit, %.preheader
  %80 = phi i32 [ %.pre31, %._crit_edge27.loopexit ], [ %45, %.preheader ]
  %81 = phi i32 [ %.pre30, %._crit_edge27.loopexit ], [ %46, %.preheader ]
  %82 = phi i32 [ %79, %._crit_edge27.loopexit ], [ %47, %.preheader ]
  %83 = add nsw i32 %81, %25
  store i32 %83, ptr %30, align 4, !tbaa !26
  %84 = load i32, ptr %42, align 4, !tbaa !35
  %85 = add nsw i32 %84, %25
  store i32 %85, ptr %42, align 4, !tbaa !35
  store i32 %29, ptr %10, align 4, !tbaa !25
  store i32 %44, ptr %41, align 4, !tbaa !34
  %.not22 = icmp sgt i32 %83, %80
  br i1 %.not22, label %._crit_edge29, label %.preheader, !llvm.loop !52

._crit_edge29:                                    ; preds = %._crit_edge27, %18
  call void @lv_image_decoder_close(ptr noundef nonnull %9) #6
  call void @llvm.lifetime.end.p0(i64 16, ptr nonnull %11) #6
  call void @llvm.lifetime.end.p0(i64 16, ptr nonnull %10) #6
  br label %86

86:                                               ; preds = %14, %._crit_edge29
  call void @llvm.lifetime.end.p0(i64 128, ptr nonnull %9) #6
  br label %87

87:                                               ; preds = %4, %86
  ret void
}